target datalayout = "e-m:e-p270:32:32-p271:32:32-p272:64:64-i64:64-i128:128-f80:128-n8:16:32:64-S128"
target triple = "x86_64-pc-linux-gnu"

%"class.cv::Point_" = type { float, float }
%"class.cv::Size_" = type { i32, i32 }
%"class.cv::Mat" = type { i32, i32, i32, i32, ptr, ptr, ptr, ptr, ptr, ptr, %"struct.cv::MatSize", %"struct.cv::MatStep" }
%"struct.cv::MatSize" = type { ptr }
%"struct.cv::MatStep" = type { ptr, [2 x i64] }
%"class.cv::Mat_" = type { %"class.cv::Mat" }
%"struct.cv::detail::ProjectorBase" = type { float, [9 x float], [9 x float], [9 x float], [9 x float], [3 x float] }
%"class.cv::_InputArray" = type { i32, ptr, %"class.cv::Size_" }
%"class.cv::detail::RotationWarperBase" = type { %"class.cv::detail::RotationWarper", %"struct.cv::detail::PlaneProjector" }
%"class.cv::detail::RotationWarper" = type { ptr }
%"struct.cv::detail::PlaneProjector" = type { %"struct.cv::detail::ProjectorBase" }

; Function Attrs: inlinehint mustprogress nounwind uwtable
define linkonce_odr hidden void @_ZN2cv6detail14PlaneProjector10mapForwardEffRfS2_(ptr noundef nonnull align 4 dereferenceable(160) %0, float noundef %1, float noundef %2, ptr noundef nonnull align 4 dereferenceable(4) %3, ptr noundef nonnull align 4 dereferenceable(4) %4) #5 comdat align 2 {
  %6 = alloca ptr, align 8
  %7 = alloca float, align 4
  %8 = alloca float, align 4
  %9 = alloca ptr, align 8
  %10 = alloca ptr, align 8
  %11 = alloca float, align 4
  %12 = alloca float, align 4
  %13 = alloca float, align 4
  store ptr %0, ptr %6, align 8, !tbaa !104
  store float %1, ptr %7, align 4, !tbaa !10
  store float %2, ptr %8, align 4, !tbaa !10
  store ptr %3, ptr %9, align 8, !tbaa !32
  store ptr %4, ptr %10, align 8, !tbaa !32
  %14 = load ptr, ptr %6, align 8
  call void @llvm.lifetime.start.p0(i64 4, ptr %11) #3
  %15 = getelementptr inbounds nuw %"struct.cv::detail::ProjectorBase", ptr %14, i32 0, i32 3
  %16 = getelementptr inbounds [9 x float], ptr %15, i64 0, i64 0
  %17 = load float, ptr %16, align 4, !tbaa !10
  %18 = load float, ptr %7, align 4, !tbaa !10
  %19 = getelementptr inbounds nuw %"struct.cv::detail::ProjectorBase", ptr %14, i32 0, i32 3
  %20 = getelementptr inbounds [9 x float], ptr %19, i64 0, i64 1
  %21 = load float, ptr %20, align 4, !tbaa !10
  %22 = load float, ptr %8, align 4, !tbaa !10
  %23 = fmul float %21, %22
  %24 = call float @llvm.fmuladd.f32(float %17, float %18, float %23)
  %25 = getelementptr inbounds nuw %"struct.cv::detail::ProjectorBase", ptr %14, i32 0, i32 3
  %26 = getelementptr inbounds [9 x float], ptr %25, i64 0, i64 2
  %27 = load float, ptr %26, align 4, !tbaa !10
  %28 = fadd float %24, %27
  store float %28, ptr %11, align 4, !tbaa !10
  call void @llvm.lifetime.start.p0(i64 4, ptr %12) #3
  %29 = getelementptr inbounds nuw %"struct.cv::detail::ProjectorBase", ptr %14, i32 0, i32 3
  %30 = getelementptr inbounds [9 x float], ptr %29, i64 0, i64 3
  %31 = load float, ptr %30, align 4, !tbaa !10
  %32 = load float, ptr %7, align 4, !tbaa !10
  %33 = getelementptr inbounds nuw %"struct.cv::detail::ProjectorBase", ptr %14, i32 0, i32 3
  %34 = getelementptr inbounds [9 x float], ptr %33, i64 0, i64 4
  %35 = load float, ptr %34, align 4, !tbaa !10
  %36 = load float, ptr %8, align 4, !tbaa !10
  %37 = fmul float %35, %36
  %38 = call float @llvm.fmuladd.f32(float %31, float %32, float %37)
  %39 = getelementptr inbounds nuw %"struct.cv::detail::ProjectorBase", ptr %14, i32 0, i32 3
  %40 = getelementptr inbounds [9 x float], ptr %39, i64 0, i64 5
  %41 = load float, ptr %40, align 4, !tbaa !10
  %42 = fadd float %38, %41
  store float %42, ptr %12, align 4, !tbaa !10
  call void @llvm.lifetime.start.p0(i64 4, ptr %13) #3
  %43 = getelementptr inbounds nuw %"struct.cv::detail::ProjectorBase", ptr %14, i32 0, i32 3
  %44 = getelementptr inbounds [9 x float], ptr %43, i64 0, i64 6
  %45 = load float, ptr %44, align 4, !tbaa !10
  %46 = load float, ptr %7, align 4, !tbaa !10
  %47 = getelementptr inbounds nuw %"struct.cv::detail::ProjectorBase", ptr %14, i32 0, i32 3
  %48 = getelementptr inbounds [9 x float], ptr %47, i64 0, i64 7
  %49 = load float, ptr %48, align 4, !tbaa !10
  %50 = load float, ptr %8, align 4, !tbaa !10
  %51 = fmul float %49, %50
  %52 = call float @llvm.fmuladd.f32(float %45, float %46, float %51)
  %53 = getelementptr inbounds nuw %"struct.cv::detail::ProjectorBase", ptr %14, i32 0, i32 3
  %54 = getelementptr inbounds [9 x float], ptr %53, i64 0, i64 8
  %55 = load float, ptr %54, align 4, !tbaa !10
  %56 = fadd float %52, %55
  store float %56, ptr %13, align 4, !tbaa !10
  %57 = getelementptr inbounds nuw %"struct.cv::detail::ProjectorBase", ptr %14, i32 0, i32 5
  %58 = getelementptr inbounds [3 x float], ptr %57, i64 0, i64 0
  %59 = load float, ptr %58, align 4, !tbaa !10
  %60 = load float, ptr %11, align 4, !tbaa !10
  %61 = load float, ptr %13, align 4, !tbaa !10
  %62 = fdiv float %60, %61
  %63 = getelementptr inbounds nuw %"struct.cv::detail::ProjectorBase", ptr %14, i32 0, i32 5
  %64 = getelementptr inbounds [3 x float], ptr %63, i64 0, i64 2
  %65 = load float, ptr %64, align 4, !tbaa !10
  %66 = fsub float 1.000000e+00, %65
  %67 = call float @llvm.fmuladd.f32(float %62, float %66, float %59)
  store float %67, ptr %11, align 4, !tbaa !10
  %68 = getelementptr inbounds nuw %"struct.cv::detail::ProjectorBase", ptr %14, i32 0, i32 5
  %69 = getelementptr inbounds [3 x float], ptr %68, i64 0, i64 1
  %70 = load float, ptr %69, align 4, !tbaa !10
  %71 = load float, ptr %12, align 4, !tbaa !10
  %72 = load float, ptr %13, align 4, !tbaa !10
  %73 = fdiv float %71, %72
  %74 = getelementptr inbounds nuw %"struct.cv::detail::ProjectorBase", ptr %14, i32 0, i32 5
  %75 = getelementptr inbounds [3 x float], ptr %74, i64 0, i64 2
  %76 = load float, ptr %75, align 4, !tbaa !10
  %77 = fsub float 1.000000e+00, %76
  %78 = call float @llvm.fmuladd.f32(float %73, float %77, float %70)
  store float %78, ptr %12, align 4, !tbaa !10
  %79 = getelementptr inbounds nuw %"struct.cv::detail::ProjectorBase", ptr %14, i32 0, i32 0
  %80 = load float, ptr %79, align 4, !tbaa !106
  %81 = load float, ptr %11, align 4, !tbaa !10
  %82 = fmul float %80, %81
  %83 = load ptr, ptr %9, align 8, !tbaa !32
  store float %82, ptr %83, align 4, !tbaa !10
  %84 = getelementptr inbounds nuw %"struct.cv::detail::ProjectorBase", ptr %14, i32 0, i32 0
  %85 = load float, ptr %84, align 4, !tbaa !106
  %86 = load float, ptr %12, align 4, !tbaa !10
  %87 = fmul float %85, %86
  %88 = load ptr, ptr %10, align 8, !tbaa !32
  store float %87, ptr %88, align 4, !tbaa !10
  call void @llvm.lifetime.end.p0(i64 4, ptr %13) #3
  call void @llvm.lifetime.end.p0(i64 4, ptr %12) #3
  call void @llvm.lifetime.end.p0(i64 4, ptr %11) #3
  ret void
}

; Function Attrs: inlinehint mustprogress nounwind uwtable
define linkonce_odr hidden void @_ZN2cv6Point_IfEC2Ev(ptr noundef nonnull align 4 dereferenceable(8) %0) unnamed_addr #5 comdat align 2 {
  %2 = alloca ptr, align 8
  store ptr %0, ptr %2, align 8, !tbaa !57
  %3 = load ptr, ptr %2, align 8
  %4 = getelementptr inbounds nuw %"class.cv::Point_", ptr %3, i32 0, i32 0
  store float 0.000000e+00, ptr %4, align 4, !tbaa !101
  %5 = getelementptr inbounds nuw %"class.cv::Point_", ptr %3, i32 0, i32 1
  store float 0.000000e+00, ptr %5, align 4, !tbaa !103
  ret void
}

; Function Attrs: inlinehint mustprogress nounwind uwtable
define linkonce_odr hidden void @_ZN2cv11_InputArray4initEiPKv(ptr noundef nonnull align 8 dereferenceable(24) %0, i32 noundef %1, ptr noundef %2) #5 comdat align 2 {
  %4 = alloca ptr, align 8
  %5 = alloca i32, align 4
  %6 = alloca ptr, align 8
  store ptr %0, ptr %4, align 8, !tbaa !59
  store i32 %1, ptr %5, align 4, !tbaa !67
  store ptr %2, ptr %6, align 8, !tbaa !184
  %7 = load ptr, ptr %4, align 8
  %8 = load i32, ptr %5, align 4, !tbaa !67
  %9 = getelementptr inbounds nuw %"class.cv::_InputArray", ptr %7, i32 0, i32 0
  store i32 %8, ptr %9, align 8, !tbaa !185
  %10 = load ptr, ptr %6, align 8, !tbaa !184
  %11 = getelementptr inbounds nuw %"class.cv::_InputArray", ptr %7, i32 0, i32 1
  store ptr %10, ptr %11, align 8, !tbaa !73
  ret void
}

; Function Attrs: inlinehint mustprogress nounwind uwtable
define linkonce_odr hidden void @_ZN2cv5Size_IiEC2Ev(ptr noundef nonnull align 4 dereferenceable(8) %0) unnamed_addr #5 comdat align 2 {
  %2 = alloca ptr, align 8
  store ptr %0, ptr %2, align 8, !tbaa !76
  %3 = load ptr, ptr %2, align 8
  %4 = getelementptr inbounds nuw %"class.cv::Size_", ptr %3, i32 0, i32 0
  store i32 0, ptr %4, align 4, !tbaa !78
  %5 = getelementptr inbounds nuw %"class.cv::Size_", ptr %3, i32 0, i32 1
  store i32 0, ptr %5, align 4, !tbaa !79
  ret void
}

; Function Attrs: inlinehint mustprogress nounwind uwtable
define linkonce_odr hidden void @_ZN2cv11_InputArrayD2Ev(ptr noundef nonnull align 8 dereferenceable(24) %0) unnamed_addr #5 comdat align 2 {
  %2 = alloca ptr, align 8
  store ptr %0, ptr %2, align 8, !tbaa !59
  ret void
}

; Function Attrs: mustprogress uwtable
define <2 x float> @_ZN2cv6detail11PlaneWarper9warpPointERKNS_6Point_IfEERKNS_11_InputArrayES8_S8_(ptr noundef nonnull align 8 dereferenceable(168) %0, ptr noundef nonnull align 4 dereferenceable(8) %1, ptr noundef nonnull align 8 dereferenceable(24) %2, ptr noundef nonnull align 8 dereferenceable(24) %3, ptr noundef nonnull align 8 dereferenceable(24) %4) #10 align 2 {
  %6 = alloca %"class.cv::Point_", align 4
  %7 = alloca ptr, align 8
  %8 = alloca ptr, align 8
  %9 = alloca ptr, align 8
  %10 = alloca ptr, align 8
  %11 = alloca ptr, align 8
  store ptr %0, ptr %7, align 8, !tbaa !99
  store ptr %1, ptr %8, align 8, !tbaa !57
  store ptr %2, ptr %9, align 8, !tbaa !59
  store ptr %3, ptr %10, align 8, !tbaa !59
  store ptr %4, ptr %11, align 8, !tbaa !59
  %12 = load ptr, ptr %7, align 8
  %13 = getelementptr inbounds nuw %"class.cv::detail::RotationWarperBase", ptr %12, i32 0, i32 1
  %14 = load ptr, ptr %9, align 8, !tbaa !59
  %15 = load ptr, ptr %10, align 8, !tbaa !59
  %16 = load ptr, ptr %11, align 8, !tbaa !59
  call void @_ZN2cv6detail13ProjectorBase15setCameraParamsERKNS_11_InputArrayES4_S4_(ptr noundef nonnull align 4 dereferenceable(160) %13, ptr noundef nonnull align 8 dereferenceable(24) %14, ptr noundef nonnull align 8 dereferenceable(24) %15, ptr noundef nonnull align 8 dereferenceable(24) %16)
  call void @_ZN2cv6Point_IfEC2Ev(ptr noundef nonnull align 4 dereferenceable(8) %6)
  %17 = getelementptr inbounds nuw %"class.cv::detail::RotationWarperBase", ptr %12, i32 0, i32 1
  %18 = load ptr, ptr %8, align 8, !tbaa !57
  %19 = getelementptr inbounds nuw %"class.cv::Point_", ptr %18, i32 0, i32 0
  %20 = load float, ptr %19, align 4, !tbaa !101
  %21 = load ptr, ptr %8, align 8, !tbaa !57
  %22 = getelementptr inbounds nuw %"class.cv::Point_", ptr %21, i32 0, i32 1
  %23 = load float, ptr %22, align 4, !tbaa !103
  %24 = getelementptr inbounds nuw %"class.cv::Point_", ptr %6, i32 0, i32 0
  %25 = getelementptr inbounds nuw %"class.cv::Point_", ptr %6, i32 0, i32 1
  call void @_ZN2cv6detail14PlaneProjector10mapForwardEffRfS2_(ptr noundef nonnull align 4 dereferenceable(160) %17, float noundef %20, float noundef %23, ptr noundef nonnull align 4 dereferenceable(4) %24, ptr noundef nonnull align 4 dereferenceable(4) %25)
  %26 = load <2 x float>, ptr %6, align 4
  ret <2 x float> %26
}

; Function Attrs: inlinehint mustprogress uwtable
define linkonce_odr hidden void @_ZN2cv11_InputArrayC2IfEERKNS_4Mat_IT_EE(ptr noundef nonnull align 8 dereferenceable(24) %0, ptr noundef nonnull align 8 dereferenceable(96) %1) unnamed_addr #7 comdat align 2 {
  %3 = alloca ptr, align 8
  %4 = alloca ptr, align 8
  store ptr %0, ptr %3, align 8, !tbaa !59
  store ptr %1, ptr %4, align 8, !tbaa !93
  %5 = load ptr, ptr %3, align 8
  %6 = getelementptr inbounds nuw %"class.cv::_InputArray", ptr %5, i32 0, i32 2
  call void @_ZN2cv5Size_IiEC2Ev(ptr noundef nonnull align 4 dereferenceable(8) %6)
  %7 = load ptr, ptr %4, align 8, !tbaa !93
  call void @_ZN2cv11_InputArray4initEiPKv(ptr noundef nonnull align 8 dereferenceable(24) %5, i32 noundef -2130640891, ptr noundef %7)
  ret void
}

; Function Attrs: inlinehint mustprogress uwtable
define linkonce_odr hidden void @_ZN2cv4Mat_IfEC2EiiPfm(ptr noundef nonnull align 8 dereferenceable(96) %0, i32 noundef %1, i32 noundef %2, ptr noundef %3, i64 noundef %4) unnamed_addr #7 comdat align 2 {
  %6 = alloca ptr, align 8
  %7 = alloca i32, align 4
  %8 = alloca i32, align 4
  %9 = alloca ptr, align 8
  %10 = alloca i64, align 8
  store ptr %0, ptr %6, align 8, !tbaa !93
  store i32 %1, ptr %7, align 4, !tbaa !67
  store i32 %2, ptr %8, align 4, !tbaa !67
  store ptr %3, ptr %9, align 8, !tbaa !32
  store i64 %4, ptr %10, align 8, !tbaa !55
  %11 = load ptr, ptr %6, align 8
  %12 = load i32, ptr %7, align 4, !tbaa !67
  %13 = load i32, ptr %8, align 4, !tbaa !67
  %14 = load ptr, ptr %9, align 8, !tbaa !32
  %15 = load i64, ptr %10, align 8, !tbaa !55
  call void @_ZN2cv3MatC2EiiiPvm(ptr noundef nonnull align 8 dereferenceable(96) %11, i32 noundef %12, i32 noundef %13, i32 noundef 5, ptr noundef %14, i64 noundef %15)
  ret void
}

; Function Attrs: mustprogress uwtable
define <2 x float> @_ZN2cv6detail11PlaneWarper9warpPointERKNS_6Point_IfEERKNS_11_InputArrayES8_(ptr noundef nonnull align 8 dereferenceable(168) %0, ptr noundef nonnull align 4 dereferenceable(8) %1, ptr noundef nonnull align 8 dereferenceable(24) %2, ptr noundef nonnull align 8 dereferenceable(24) %3) unnamed_addr #10 align 2 personality ptr @__gxx_personality_v0 {
  %5 = alloca %"class.cv::Point_", align 4
  %6 = alloca ptr, align 8
  %7 = alloca ptr, align 8
  %8 = alloca ptr, align 8
  %9 = alloca ptr, align 8
  %10 = alloca [3 x float], align 4
  %11 = alloca %"class.cv::Mat_", align 8
  %12 = alloca %"class.cv::_InputArray", align 8
  %13 = alloca ptr, align 8
  %14 = alloca i32, align 4
  store ptr %0, ptr %6, align 8, !tbaa !99
  store ptr %1, ptr %7, align 8, !tbaa !57
  store ptr %2, ptr %8, align 8, !tbaa !59
  store ptr %3, ptr %9, align 8, !tbaa !59
  %15 = load ptr, ptr %6, align 8
  call void @llvm.lifetime.start.p0(i64 12, ptr %10) #3
  call void @llvm.memset.p0.i64(ptr align 4 %10, i8 0, i64 12, i1 false)
  call void @llvm.lifetime.start.p0(i64 96, ptr %11) #3
  %16 = getelementptr inbounds [3 x float], ptr %10, i64 0, i64 0
  call void @_ZN2cv4Mat_IfEC2EiiPfm(ptr noundef nonnull align 8 dereferenceable(96) %11, i32 noundef 3, i32 noundef 1, ptr noundef %16, i64 noundef 0)
  %17 = load ptr, ptr %7, align 8, !tbaa !57
  %18 = load ptr, ptr %8, align 8, !tbaa !59
  %19 = load ptr, ptr %9, align 8, !tbaa !59
  call void @llvm.lifetime.start.p0(i64 24, ptr %12) #3
  invoke void @_ZN2cv11_InputArrayC2IfEERKNS_4Mat_IT_EE(ptr noundef nonnull align 8 dereferenceable(24) %12, ptr noundef nonnull align 8 dereferenceable(96) %11)
          to label %20 unwind label %24

20:                                               ; preds = %4
  %21 = invoke <2 x float> @_ZN2cv6detail11PlaneWarper9warpPointERKNS_6Point_IfEERKNS_11_InputArrayES8_S8_(ptr noundef nonnull align 8 dereferenceable(168) %15, ptr noundef nonnull align 4 dereferenceable(8) %17, ptr noundef nonnull align 8 dereferenceable(24) %18, ptr noundef nonnull align 8 dereferenceable(24) %19, ptr noundef nonnull align 8 dereferenceable(24) %12)
          to label %22 unwind label %28

22:                                               ; preds = %20
  store <2 x float> %21, ptr %5, align 4
  call void @_ZN2cv11_InputArrayD2Ev(ptr noundef nonnull align 8 dereferenceable(24) %12) #3
  call void @llvm.lifetime.end.p0(i64 24, ptr %12) #3
  call void @_ZN2cv3MatD2Ev(ptr noundef nonnull align 8 dereferenceable(96) %11) #3
  call void @llvm.lifetime.end.p0(i64 96, ptr %11) #3
  call void @llvm.lifetime.end.p0(i64 12, ptr %10) #3
  %23 = load <2 x float>, ptr %5, align 4
  ret <2 x float> %23

24:                                               ; preds = %4
  %25 = landingpad { ptr, i32 }
          cleanup
  %26 = extractvalue { ptr, i32 } %25, 0
  store ptr %26, ptr %13, align 8
  %27 = extractvalue { ptr, i32 } %25, 1
  store i32 %27, ptr %14, align 4
  br label %32

28:                                               ; preds = %20
  %29 = landingpad { ptr, i32 }
          cleanup
  %30 = extractvalue { ptr, i32 } %29, 0
  store ptr %30, ptr %13, align 8
  %31 = extractvalue { ptr, i32 } %29, 1
  store i32 %31, ptr %14, align 4
  call void @_ZN2cv11_InputArrayD2Ev(ptr noundef nonnull align 8 dereferenceable(24) %12) #3
  br label %32

32:                                               ; preds = %28, %24
  call void @llvm.lifetime.end.p0(i64 24, ptr %12) #3
  call void @_ZN2cv3MatD2Ev(ptr noundef nonnull align 8 dereferenceable(96) %11) #3
  call void @llvm.lifetime.end.p0(i64 96, ptr %11) #3
  call void @llvm.lifetime.end.p0(i64 12, ptr %10) #3
  br label %33

33:                                               ; preds = %32
  %34 = load ptr, ptr %13, align 8
  %35 = load i32, ptr %14, align 4
  %36 = insertvalue { ptr, i32 } poison, ptr %34, 0
  %37 = insertvalue { ptr, i32 } %36, i32 %35, 1
  resume { ptr, i32 } %37
}