; Function Attrs: mustprogress uwtable
define <2 x float> @_ZN2cv6detail11PlaneWarper9warpPointERKNS_6Point_IfEERKNS_11_InputArrayES8_(ptr noundef nonnull align 8 captures(none) dereferenceable(168) %0, ptr noundef nonnull readonly align 4 captures(none) dereferenceable(8) %1, ptr noundef nonnull align 8 dereferenceable(24) %2, ptr noundef nonnull align 8 dereferenceable(24) %3) unnamed_addr #8 align 2 personality ptr @__gxx_personality_v0 {
  %5 = alloca [3 x float], align 4
  %6 = alloca %"class.cv::Mat_", align 8
  %7 = alloca %"class.cv::_InputArray", align 8
  call void @llvm.lifetime.start.p0(i64 12, ptr nonnull %5) #22
  call void @llvm.memset.p0.i64(ptr noundef nonnull align 4 dereferenceable(12) %5, i8 0, i64 12, i1 false)
  call void @llvm.lifetime.start.p0(i64 96, ptr nonnull %6) #22
  call void @_ZN2cv3MatC2EiiiPvm(ptr noundef nonnull align 8 dereferenceable(96) %6, i32 noundef 3, i32 noundef 1, i32 noundef 5, ptr noundef nonnull %5, i64 noundef 0)
  call void @llvm.lifetime.start.p0(i64 24, ptr nonnull %7) #22
  %8 = getelementptr inbounds nuw i8, ptr %7, i64 16
  store i32 0, ptr %8, align 8, !tbaa !203
  %9 = getelementptr inbounds nuw i8, ptr %7, i64 20
  store i32 0, ptr %9, align 4, !tbaa !204
  store i32 -2130640891, ptr %7, align 8, !tbaa !205
  %10 = getelementptr inbounds nuw i8, ptr %7, i64 8
  store ptr %6, ptr %10, align 8, !tbaa !160
  %11 = getelementptr inbounds nuw i8, ptr %0, i64 8
  invoke void @_ZN2cv6detail13ProjectorBase15setCameraParamsERKNS_11_InputArrayES4_S4_(ptr noundef nonnull align 4 dereferenceable(160) %11, ptr noundef nonnull align 8 dereferenceable(24) %2, ptr noundef nonnull align 8 dereferenceable(24) %3, ptr noundef nonnull align 8 dereferenceable(24) %7)
          to label %12 unwind label %57

12:                                               ; preds = %4
  %13 = load float, ptr %1, align 4, !tbaa !198
  %14 = getelementptr inbounds nuw i8, ptr %1, i64 4
  %15 = load float, ptr %14, align 4, !tbaa !200
  %16 = getelementptr inbounds nuw i8, ptr %0, i64 84
  %17 = load float, ptr %16, align 4, !tbaa !180
  %18 = getelementptr inbounds nuw i8, ptr %0, i64 88
  %19 = load float, ptr %18, align 8, !tbaa !180
  %20 = fmul float %15, %19
  %21 = call float @llvm.fmuladd.f32(float %17, float %13, float %20)
  %22 = getelementptr inbounds nuw i8, ptr %0, i64 92
  %23 = load float, ptr %22, align 4, !tbaa !180
  %24 = fadd float %23, %21
  %25 = getelementptr inbounds nuw i8, ptr %0, i64 96
  %26 = load float, ptr %25, align 8, !tbaa !180
  %27 = getelementptr inbounds nuw i8, ptr %0, i64 100
  %28 = load float, ptr %27, align 4, !tbaa !180
  %29 = fmul float %15, %28
  %30 = call float @llvm.fmuladd.f32(float %26, float %13, float %29)
  %31 = getelementptr inbounds nuw i8, ptr %0, i64 104
  %32 = load float, ptr %31, align 8, !tbaa !180
  %33 = fadd float %32, %30
  %34 = getelementptr inbounds nuw i8, ptr %0, i64 108
  %35 = load float, ptr %34, align 4, !tbaa !180
  %36 = getelementptr inbounds nuw i8, ptr %0, i64 112
  %37 = load float, ptr %36, align 8, !tbaa !180
  %38 = fmul float %15, %37
  %39 = call float @llvm.fmuladd.f32(float %35, float %13, float %38)
  %40 = getelementptr inbounds nuw i8, ptr %0, i64 116
  %41 = load float, ptr %40, align 4, !tbaa !180
  %42 = fadd float %41, %39
  %43 = getelementptr inbounds nuw i8, ptr %0, i64 156
  %44 = load float, ptr %43, align 4, !tbaa !180
  %45 = fdiv float %24, %42
  %46 = getelementptr inbounds nuw i8, ptr %0, i64 164
  %47 = load float, ptr %46, align 4, !tbaa !180
  %48 = fsub float 1.000000e+00, %47
  %49 = call float @llvm.fmuladd.f32(float %45, float %48, float %44)
  %50 = getelementptr inbounds nuw i8, ptr %0, i64 160
  %51 = load float, ptr %50, align 8, !tbaa !180
  %52 = fdiv float %33, %42
  %53 = call float @llvm.fmuladd.f32(float %52, float %48, float %51)
  %54 = load float, ptr %11, align 8, !tbaa !201
  %55 = fmul float %54, %49
  %.sroa.0.0.vec.insert8.i = insertelement <2 x float> poison, float %55, i64 0
  %56 = fmul float %53, %54
  %.sroa.0.4.vec.insert.i = insertelement <2 x float> %.sroa.0.0.vec.insert8.i, float %56, i64 1
  call void @llvm.lifetime.end.p0(i64 24, ptr nonnull %7) #22
  call void @_ZN2cv3MatD2Ev(ptr noundef nonnull align 8 dereferenceable(96) %6) #22
  call void @llvm.lifetime.end.p0(i64 96, ptr nonnull %6) #22
  call void @llvm.lifetime.end.p0(i64 12, ptr nonnull %5) #22
  ret <2 x float> %.sroa.0.4.vec.insert.i

57:                                               ; preds = %4
  %58 = landingpad { ptr, i32 }
          cleanup
  call void @llvm.lifetime.end.p0(i64 24, ptr nonnull %7) #22
  call void @_ZN2cv3MatD2Ev(ptr noundef nonnull align 8 dereferenceable(96) %6) #22
  call void @llvm.lifetime.end.p0(i64 96, ptr nonnull %6) #22
  call void @llvm.lifetime.end.p0(i64 12, ptr nonnull %5) #22
  resume { ptr, i32 } %58
}